; ModuleID = '29/1909.c'
source_filename = "29/1909.c"
target datalayout = "e-m:e-p270:32:32-p271:32:32-p272:64:64-i64:64-f80:128-n8:16:32:64-S128"
target triple = "x86_64-pc-linux-gnu"

@.str = private unnamed_addr constant [3 x i8] c"%d\00", align 1
@.str.1 = private unnamed_addr constant [5 x i8] c"%.3f\00", align 1
@.str.2 = private unnamed_addr constant [2 x i8] c"\0A\00", align 1

; Function Attrs: noinline nounwind uwtable
define dso_local i32 @main() #0 {
  %1 = alloca i32, align 4
  %2 = alloca i32, align 4
  %3 = alloca i32, align 4
  %4 = alloca i32, align 4
  %5 = alloca i32, align 4
  %6 = alloca i32, align 4
  %7 = alloca i32, align 4
  %8 = alloca [100 x i32], align 16
  %9 = alloca float, align 4
  store i32 0, i32* %1, align 4
  store float 0.000000e+00, float* %9, align 4
  %10 = call i32 (i8*, ...) @__isoc99_scanf(i8* getelementptr inbounds ([3 x i8], [3 x i8]* @.str, i64 0, i64 0), i32* %7)
  store i32 1, i32* %3, align 4
  br label %11

11:                                               ; preds = %20, %0
  %12 = load i32, i32* %3, align 4
  %13 = load i32, i32* %7, align 4
  %14 = icmp sle i32 %12, %13
  br i1 %14, label %15, label %23

15:                                               ; preds = %11
  %16 = load i32, i32* %3, align 4
  %17 = sext i32 %16 to i64
  %18 = getelementptr inbounds [100 x i32], [100 x i32]* %8, i64 0, i64 %17
  %19 = call i32 (i8*, ...) @__isoc99_scanf(i8* getelementptr inbounds ([3 x i8], [3 x i8]* @.str, i64 0, i64 0), i32* %18)
  br label %20

20:                                               ; preds = %15
  %21 = load i32, i32* %3, align 4
  %22 = add nsw i32 %21, 1
  store i32 %22, i32* %3, align 4
  br label %11

23:                                               ; preds = %11
  store i32 1, i32* %3, align 4
  br label %24

24:                                               ; preds = %57, %23
  %25 = load i32, i32* %3, align 4
  %26 = load i32, i32* %7, align 4
  %27 = icmp sle i32 %25, %26
  br i1 %27, label %28, label %60

28:                                               ; preds = %24
  store float 0.000000e+00, float* %9, align 4
  store i32 2, i32* %4, align 4
  store i32 1, i32* %5, align 4
  store i32 1, i32* %2, align 4
  br label %29

29:                                               ; preds = %49, %28
  %30 = load i32, i32* %2, align 4
  %31 = load i32, i32* %3, align 4
  %32 = sext i32 %31 to i64
  %33 = getelementptr inbounds [100 x i32], [100 x i32]* %8, i64 0, i64 %32
  %34 = load i32, i32* %33, align 4
  %35 = icmp sle i32 %30, %34
  br i1 %35, label %36, label %52

36:                                               ; preds = %29
  %37 = load i32, i32* %4, align 4
  %38 = sitofp i32 %37 to float
  %39 = load i32, i32* %5, align 4
  %40 = sitofp i32 %39 to float
  %41 = fdiv float %38, %40
  %42 = load float, float* %9, align 4
  %43 = fadd float %42, %41
  store float %43, float* %9, align 4
  %44 = load i32, i32* %4, align 4
  store i32 %44, i32* %6, align 4
  %45 = load i32, i32* %4, align 4
  %46 = load i32, i32* %5, align 4
  %47 = add nsw i32 %45, %46
  store i32 %47, i32* %4, align 4
  %48 = load i32, i32* %6, align 4
  store i32 %48, i32* %5, align 4
  br label %49

49:                                               ; preds = %36
  %50 = load i32, i32* %2, align 4
  %51 = add nsw i32 %50, 1
  store i32 %51, i32* %2, align 4
  br label %29

52:                                               ; preds = %29
  %53 = load float, float* %9, align 4
  %54 = fpext float %53 to double
  %55 = call i32 (i8*, ...) @printf(i8* getelementptr inbounds ([5 x i8], [5 x i8]* @.str.1, i64 0, i64 0), double %54)
  %56 = call i32 (i8*, ...) @printf(i8* getelementptr inbounds ([2 x i8], [2 x i8]* @.str.2, i64 0, i64 0))
  br label %57

57:                                               ; preds = %52
  %58 = load i32, i32* %3, align 4
  %59 = add nsw i32 %58, 1
  store i32 %59, i32* %3, align 4
  br label %24

60:                                               ; preds = %24
  ret i32 0
}

declare dso_local i32 @__isoc99_scanf(i8*, ...) #1

declare dso_local i32 @printf(i8*, ...) #1


!llvm.module.flags = !{!0}
!llvm.ident = !{!1}

!0 = !{i32 1, !"wchar_size", i32 4}
!1 = !{!"clang version 10.0.0-4ubuntu1 "}
